; Function Attrs: mustprogress nofree norecurse nosync nounwind willreturn memory(read, argmem: readwrite, inaccessiblemem: none) uwtable
define internal void @filter_rgba(ptr noundef readonly captures(none) %0, ptr noundef readonly captures(none) %1, i64 noundef %2, ptr noundef captures(none) initializes((0, 4)) %3, ptr noundef captures(none) initializes((0, 4)) %4, i32 noundef %5, i32 noundef %6) #9 {
  %8 = getelementptr inbounds nuw i8, ptr %0, i64 72
  %9 = load ptr, ptr %8, align 8, !tbaa !4
  %10 = sext i32 %6 to i64
  %11 = mul nsw i64 %2, %10
  %12 = getelementptr inbounds i8, ptr %1, i64 %11
  %13 = shl nsw i32 %5, 2
  %14 = sext i32 %13 to i64
  %15 = getelementptr inbounds i8, ptr %12, i64 %14
  %16 = load i8, ptr %15, align 1, !tbaa !95
  %17 = uitofp i8 %16 to float
  %18 = fadd nsz float %17, 0x3F847AE140000000
  %19 = fmul nsz float %18, 0x3F70101020000000
  %20 = getelementptr inbounds nuw i8, ptr %15, i64 1
  %21 = load i8, ptr %20, align 1, !tbaa !95
  %22 = uitofp i8 %21 to float
  %23 = fadd nsz float %22, 0x3F847AE140000000
  %24 = fmul nsz float %23, 0x3F70101020000000
  %25 = getelementptr inbounds nuw i8, ptr %15, i64 2
  %26 = load i8, ptr %25, align 1, !tbaa !95
  %27 = uitofp i8 %26 to float
  %28 = fadd nsz float %27, 0x3F847AE140000000
  %29 = fmul nsz float %28, 0x3F70101020000000
  %30 = getelementptr inbounds nuw i8, ptr %9, i64 262232
  %31 = load float, ptr %30, align 4, !tbaa !54
  %32 = getelementptr inbounds nuw i8, ptr %9, i64 262236
  %33 = load float, ptr %32, align 4, !tbaa !54
  %34 = fmul nsz float %24, %33
  %35 = tail call nsz float @llvm.fmuladd.f32(float %31, float %19, float %34)
  %36 = getelementptr inbounds nuw i8, ptr %9, i64 262240
  %37 = load float, ptr %36, align 4, !tbaa !54
  %38 = tail call nsz float @llvm.fmuladd.f32(float %37, float %29, float %35)
  store float %38, ptr %3, align 4, !tbaa !54
  %39 = getelementptr inbounds nuw i8, ptr %9, i64 262244
  %40 = load float, ptr %39, align 4, !tbaa !54
  %41 = getelementptr inbounds nuw i8, ptr %9, i64 262248
  %42 = load float, ptr %41, align 4, !tbaa !54
  %43 = fmul nsz float %24, %42
  %44 = tail call nsz float @llvm.fmuladd.f32(float %40, float %19, float %43)
  %45 = getelementptr inbounds nuw i8, ptr %9, i64 262252
  %46 = load float, ptr %45, align 4, !tbaa !54
  %47 = tail call nsz float @llvm.fmuladd.f32(float %46, float %29, float %44)
  store float %47, ptr %4, align 4, !tbaa !54
  %48 = getelementptr inbounds nuw i8, ptr %9, i64 262256
  %49 = load float, ptr %48, align 4, !tbaa !54
  %50 = getelementptr inbounds nuw i8, ptr %9, i64 262260
  %51 = load float, ptr %50, align 4, !tbaa !54
  %52 = fmul nsz float %24, %51
  %53 = tail call nsz float @llvm.fmuladd.f32(float %49, float %19, float %52)
  %54 = getelementptr inbounds nuw i8, ptr %9, i64 262264
  %55 = load float, ptr %54, align 4, !tbaa !54
  %56 = tail call nsz float @llvm.fmuladd.f32(float %55, float %29, float %53)
  %57 = load float, ptr %3, align 4, !tbaa !54
  %58 = fadd nsz float %47, %57
  %59 = fadd nsz float %56, %58
  %60 = fdiv nsz float 1.000000e+00, %59
  %61 = fmul nsz float %57, %60
  store float %61, ptr %3, align 4, !tbaa !54
  %62 = load float, ptr %4, align 4, !tbaa !54
  %63 = fmul nsz float %62, %60
  store float %63, ptr %4, align 4, !tbaa !54
  ret void
}